target datalayout = "e-m:e-p270:32:32-p271:32:32-p272:64:64-i64:64-i128:128-f80:128-n8:16:32:64-S128"
target triple = "x86_64-pc-linux-gnu"

%struct.addrinfo = type { i32, i32, i32, i32, i32, ptr, ptr, ptr }
%struct.fd_set = type { [16 x i64] }
%struct.timeval = type { i64, i64 }
%union.__CONST_SOCKADDR_ARG = type { ptr }

; Function Attrs: nounwind uwtable
define i32 @connect_host(ptr noundef %0, ptr noundef %1, i32 noundef %2, i32 noundef %3) #0 {
  %5 = alloca i32, align 4
  %6 = alloca ptr, align 8
  %7 = alloca ptr, align 8
  %8 = alloca i32, align 4
  %9 = alloca i32, align 4
  %10 = alloca i32, align 4
  %11 = alloca %struct.addrinfo, align 8
  %12 = alloca ptr, align 8
  %13 = alloca ptr, align 8
  %14 = alloca i32, align 4
  %15 = alloca i32, align 4
  %16 = alloca i32, align 4
  %17 = alloca %struct.fd_set, align 8
  %18 = alloca %struct.fd_set, align 8
  %19 = alloca %struct.timeval, align 8
  %20 = alloca i32, align 4
  %21 = alloca %union.__CONST_SOCKADDR_ARG, align 8
  %22 = alloca i32, align 4
  %23 = alloca ptr, align 8
  %24 = alloca i32, align 4
  %25 = alloca ptr, align 8
  store ptr %0, ptr %6, align 8, !tbaa !3
  store ptr %1, ptr %7, align 8, !tbaa !3
  store i32 %2, ptr %8, align 4, !tbaa !8
  store i32 %3, ptr %9, align 4, !tbaa !8
  call void @llvm.lifetime.start.p0(i64 4, ptr %10) #8
  store i32 -1, ptr %10, align 4, !tbaa !8
  call void @llvm.lifetime.start.p0(i64 48, ptr %11) #8
  call void @llvm.lifetime.start.p0(i64 8, ptr %12) #8
  store ptr null, ptr %12, align 8, !tbaa !10
  call void @llvm.lifetime.start.p0(i64 8, ptr %13) #8
  store ptr null, ptr %13, align 8, !tbaa !10
  call void @llvm.lifetime.start.p0(i64 4, ptr %14) #8
  store i32 0, ptr %14, align 4, !tbaa !8
  call void @llvm.lifetime.start.p0(i64 4, ptr %15) #8
  call void @llvm.lifetime.start.p0(i64 4, ptr %16) #8
  call void @llvm.lifetime.start.p0(i64 128, ptr %17) #8
  call void @llvm.lifetime.start.p0(i64 128, ptr %18) #8
  call void @llvm.lifetime.start.p0(i64 16, ptr %19) #8
  call void @llvm.memset.p0.i64(ptr align 8 %11, i8 0, i64 48, i1 false)
  %26 = getelementptr inbounds nuw %struct.addrinfo, ptr %11, i32 0, i32 1
  store i32 0, ptr %26, align 4, !tbaa !12
  %27 = getelementptr inbounds nuw %struct.addrinfo, ptr %11, i32 0, i32 2
  store i32 1, ptr %27, align 8, !tbaa !15
  %28 = load ptr, ptr %6, align 8, !tbaa !3
  %29 = load ptr, ptr %7, align 8, !tbaa !3
  %30 = call i32 @getaddrinfo(ptr noundef %28, ptr noundef %29, ptr noundef %11, ptr noundef %12)
  %31 = icmp ne i32 %30, 0
  br i1 %31, label %32, label %33

32:                                               ; preds = %4
  store i32 -1, ptr %5, align 4
  store i32 1, ptr %20, align 4
  br label %234

33:                                               ; preds = %4
  %34 = load ptr, ptr %12, align 8, !tbaa !10
  store ptr %34, ptr %13, align 8, !tbaa !10
  br label %35

35:                                               ; preds = %201, %33
  %36 = load ptr, ptr %13, align 8, !tbaa !10
  %37 = icmp ne ptr %36, null
  br i1 %37, label %38, label %205

38:                                               ; preds = %35
  %39 = load ptr, ptr %13, align 8, !tbaa !10
  %40 = getelementptr inbounds nuw %struct.addrinfo, ptr %39, i32 0, i32 1
  %41 = load i32, ptr %40, align 4, !tbaa !12
  %42 = load ptr, ptr %13, align 8, !tbaa !10
  %43 = getelementptr inbounds nuw %struct.addrinfo, ptr %42, i32 0, i32 2
  %44 = load i32, ptr %43, align 8, !tbaa !15
  %45 = load ptr, ptr %13, align 8, !tbaa !10
  %46 = getelementptr inbounds nuw %struct.addrinfo, ptr %45, i32 0, i32 3
  %47 = load i32, ptr %46, align 4, !tbaa !16
  %48 = call i32 @socket(i32 noundef %41, i32 noundef %44, i32 noundef %47) #8
  store i32 %48, ptr %10, align 4, !tbaa !8
  %49 = load i32, ptr %10, align 4, !tbaa !8
  %50 = icmp slt i32 %49, 0
  br i1 %50, label %51, label %52

51:                                               ; preds = %38
  br label %201

52:                                               ; preds = %38
  %53 = load i32, ptr %9, align 4, !tbaa !8
  %54 = icmp ne i32 %53, 0
  br i1 %54, label %55, label %67

55:                                               ; preds = %52
  %56 = load i32, ptr %10, align 4, !tbaa !8
  %57 = call i32 (i32, i32, ...) @fcntl(i32 noundef %56, i32 noundef 3, i32 noundef 0)
  store i32 %57, ptr %14, align 4, !tbaa !8
  %58 = load i32, ptr %10, align 4, !tbaa !8
  %59 = load i32, ptr %14, align 4, !tbaa !8
  %60 = or i32 %59, 2048
  %61 = call i32 (i32, i32, ...) @fcntl(i32 noundef %58, i32 noundef 4, i32 noundef %60)
  %62 = icmp slt i32 %61, 0
  br i1 %62, label %63, label %66

63:                                               ; preds = %55
  %64 = load i32, ptr %10, align 4, !tbaa !8
  %65 = call i32 @close(i32 noundef %64)
  br label %201

66:                                               ; preds = %55
  br label %67

67:                                               ; preds = %66, %52
  %68 = load i32, ptr %10, align 4, !tbaa !8
  %69 = load ptr, ptr %13, align 8, !tbaa !10
  %70 = getelementptr inbounds nuw %struct.addrinfo, ptr %69, i32 0, i32 5
  %71 = load ptr, ptr %70, align 8, !tbaa !17
  store ptr %71, ptr %21, align 8, !tbaa !18
  %72 = load ptr, ptr %13, align 8, !tbaa !10
  %73 = getelementptr inbounds nuw %struct.addrinfo, ptr %72, i32 0, i32 4
  %74 = load i32, ptr %73, align 8, !tbaa !19
  %75 = getelementptr inbounds nuw %union.__CONST_SOCKADDR_ARG, ptr %21, i32 0, i32 0
  %76 = load ptr, ptr %75, align 8
  %77 = call i32 @connect(i32 noundef %68, ptr %76, i32 noundef %74)
  store i32 %77, ptr %15, align 4, !tbaa !8
  %78 = icmp ne i32 %77, 0
  br i1 %78, label %79, label %200

79:                                               ; preds = %67
  %80 = load i32, ptr %9, align 4, !tbaa !8
  %81 = icmp ne i32 %80, 0
  br i1 %81, label %82, label %196

82:                                               ; preds = %79
  %83 = call ptr @__errno_location() #9
  %84 = load i32, ptr %83, align 4, !tbaa !8
  %85 = icmp ne i32 %84, 115
  br i1 %85, label %86, label %89

86:                                               ; preds = %82
  %87 = load i32, ptr %10, align 4, !tbaa !8
  %88 = call i32 @close(i32 noundef %87)
  br label %201

89:                                               ; preds = %82
  %90 = call ptr @__errno_location() #9
  store i32 0, ptr %90, align 4, !tbaa !8
  br label %91

91:                                               ; preds = %89
  call void @llvm.lifetime.start.p0(i64 4, ptr %22) #8
  call void @llvm.lifetime.start.p0(i64 8, ptr %23) #8
  store ptr %18, ptr %23, align 8, !tbaa !20
  store i32 0, ptr %22, align 4, !tbaa !8
  br label %92

92:                                               ; preds = %102, %91
  %93 = load i32, ptr %22, align 4, !tbaa !8
  %94 = zext i32 %93 to i64
  %95 = icmp ult i64 %94, 16
  br i1 %95, label %96, label %105

96:                                               ; preds = %92
  %97 = load ptr, ptr %23, align 8, !tbaa !20
  %98 = getelementptr inbounds nuw %struct.fd_set, ptr %97, i32 0, i32 0
  %99 = load i32, ptr %22, align 4, !tbaa !8
  %100 = zext i32 %99 to i64
  %101 = getelementptr inbounds nuw [16 x i64], ptr %98, i64 0, i64 %100
  store i64 0, ptr %101, align 8, !tbaa !21
  br label %102

102:                                              ; preds = %96
  %103 = load i32, ptr %22, align 4, !tbaa !8
  %104 = add i32 %103, 1
  store i32 %104, ptr %22, align 4, !tbaa !8
  br label %92

105:                                              ; preds = %92
  call void @llvm.lifetime.end.p0(i64 8, ptr %23) #8
  call void @llvm.lifetime.end.p0(i64 4, ptr %22) #8
  br label %106

106:                                              ; preds = %105
  br label %107

107:                                              ; preds = %106
  br label %108

108:                                              ; preds = %107
  call void @llvm.lifetime.start.p0(i64 4, ptr %24) #8
  call void @llvm.lifetime.start.p0(i64 8, ptr %25) #8
  store ptr %17, ptr %25, align 8, !tbaa !20
  store i32 0, ptr %24, align 4, !tbaa !8
  br label %109

109:                                              ; preds = %119, %108
  %110 = load i32, ptr %24, align 4, !tbaa !8
  %111 = zext i32 %110 to i64
  %112 = icmp ult i64 %111, 16
  br i1 %112, label %113, label %122

113:                                              ; preds = %109
  %114 = load ptr, ptr %25, align 8, !tbaa !20
  %115 = getelementptr inbounds nuw %struct.fd_set, ptr %114, i32 0, i32 0
  %116 = load i32, ptr %24, align 4, !tbaa !8
  %117 = zext i32 %116 to i64
  %118 = getelementptr inbounds nuw [16 x i64], ptr %115, i64 0, i64 %117
  store i64 0, ptr %118, align 8, !tbaa !21
  br label %119

119:                                              ; preds = %113
  %120 = load i32, ptr %24, align 4, !tbaa !8
  %121 = add i32 %120, 1
  store i32 %121, ptr %24, align 4, !tbaa !8
  br label %109

122:                                              ; preds = %109
  call void @llvm.lifetime.end.p0(i64 8, ptr %25) #8
  call void @llvm.lifetime.end.p0(i64 4, ptr %24) #8
  br label %123

123:                                              ; preds = %122
  br label %124

124:                                              ; preds = %123
  %125 = load i32, ptr %10, align 4, !tbaa !8
  %126 = srem i32 %125, 64
  %127 = zext i32 %126 to i64
  %128 = shl i64 1, %127
  %129 = getelementptr inbounds nuw %struct.fd_set, ptr %17, i32 0, i32 0
  %130 = load i32, ptr %10, align 4, !tbaa !8
  %131 = sdiv i32 %130, 64
  %132 = sext i32 %131 to i64
  %133 = getelementptr inbounds [16 x i64], ptr %129, i64 0, i64 %132
  %134 = load i64, ptr %133, align 8, !tbaa !21
  %135 = or i64 %134, %128
  store i64 %135, ptr %133, align 8, !tbaa !21
  %136 = load i32, ptr %10, align 4, !tbaa !8
  %137 = srem i32 %136, 64
  %138 = zext i32 %137 to i64
  %139 = shl i64 1, %138
  %140 = getelementptr inbounds nuw %struct.fd_set, ptr %18, i32 0, i32 0
  %141 = load i32, ptr %10, align 4, !tbaa !8
  %142 = sdiv i32 %141, 64
  %143 = sext i32 %142 to i64
  %144 = getelementptr inbounds [16 x i64], ptr %140, i64 0, i64 %143
  %145 = load i64, ptr %144, align 8, !tbaa !21
  %146 = or i64 %145, %139
  store i64 %146, ptr %144, align 8, !tbaa !21
  %147 = load i32, ptr %8, align 4, !tbaa !8
  %148 = zext i32 %147 to i64
  %149 = getelementptr inbounds nuw %struct.timeval, ptr %19, i32 0, i32 0
  store i64 %148, ptr %149, align 8, !tbaa !23
  %150 = getelementptr inbounds nuw %struct.timeval, ptr %19, i32 0, i32 1
  store i64 0, ptr %150, align 8, !tbaa !25
  %151 = load i32, ptr %10, align 4, !tbaa !8
  %152 = add nsw i32 %151, 1
  %153 = call i32 @select(i32 noundef %152, ptr noundef %17, ptr noundef %18, ptr noundef null, ptr noundef %19)
  %154 = icmp sle i32 %153, 0
  br i1 %154, label %155, label %158

155:                                              ; preds = %124
  %156 = load i32, ptr %10, align 4, !tbaa !8
  %157 = call i32 @close(i32 noundef %156)
  br label %201

158:                                              ; preds = %124
  %159 = getelementptr inbounds nuw %struct.fd_set, ptr %17, i32 0, i32 0
  %160 = load i32, ptr %10, align 4, !tbaa !8
  %161 = sdiv i32 %160, 64
  %162 = sext i32 %161 to i64
  %163 = getelementptr inbounds [16 x i64], ptr %159, i64 0, i64 %162
  %164 = load i64, ptr %163, align 8, !tbaa !21
  %165 = load i32, ptr %10, align 4, !tbaa !8
  %166 = srem i32 %165, 64
  %167 = zext i32 %166 to i64
  %168 = shl i64 1, %167
  %169 = and i64 %164, %168
  %170 = icmp ne i64 %169, 0
  br i1 %170, label %184, label %171

171:                                              ; preds = %158
  %172 = getelementptr inbounds nuw %struct.fd_set, ptr %18, i32 0, i32 0
  %173 = load i32, ptr %10, align 4, !tbaa !8
  %174 = sdiv i32 %173, 64
  %175 = sext i32 %174 to i64
  %176 = getelementptr inbounds [16 x i64], ptr %172, i64 0, i64 %175
  %177 = load i64, ptr %176, align 8, !tbaa !21
  %178 = load i32, ptr %10, align 4, !tbaa !8
  %179 = srem i32 %178, 64
  %180 = zext i32 %179 to i64
  %181 = shl i64 1, %180
  %182 = and i64 %177, %181
  %183 = icmp ne i64 %182, 0
  br i1 %183, label %184, label %192

184:                                              ; preds = %171, %158
  store i32 4, ptr %16, align 4, !tbaa !8
  %185 = load i32, ptr %10, align 4, !tbaa !8
  %186 = call i32 @getsockopt(i32 noundef %185, i32 noundef 1, i32 noundef 4, ptr noundef %15, ptr noundef %16) #8
  %187 = icmp slt i32 %186, 0
  br i1 %187, label %188, label %191

188:                                              ; preds = %184
  %189 = load i32, ptr %10, align 4, !tbaa !8
  %190 = call i32 @close(i32 noundef %189)
  br label %201

191:                                              ; preds = %184
  br label %195

192:                                              ; preds = %171
  %193 = load i32, ptr %10, align 4, !tbaa !8
  %194 = call i32 @close(i32 noundef %193)
  br label %201

195:                                              ; preds = %191
  br label %199

196:                                              ; preds = %79
  %197 = load i32, ptr %10, align 4, !tbaa !8
  %198 = call i32 @close(i32 noundef %197)
  br label %201

199:                                              ; preds = %195
  br label %200

200:                                              ; preds = %199, %67
  br label %205

201:                                              ; preds = %196, %192, %188, %155, %86, %63, %51
  %202 = load ptr, ptr %13, align 8, !tbaa !10
  %203 = getelementptr inbounds nuw %struct.addrinfo, ptr %202, i32 0, i32 7
  %204 = load ptr, ptr %203, align 8, !tbaa !26
  store ptr %204, ptr %13, align 8, !tbaa !10
  br label %35

205:                                              ; preds = %200, %35
  %206 = load ptr, ptr %13, align 8, !tbaa !10
  %207 = icmp ne ptr %206, null
  br i1 %207, label %216, label %208

208:                                              ; preds = %205
  %209 = load ptr, ptr %12, align 8, !tbaa !10
  call void @freeaddrinfo(ptr noundef %209) #8
  %210 = load i32, ptr %10, align 4, !tbaa !8
  %211 = icmp sge i32 %210, 0
  br i1 %211, label %212, label %215

212:                                              ; preds = %208
  %213 = load i32, ptr %10, align 4, !tbaa !8
  %214 = call i32 @close(i32 noundef %213)
  br label %215

215:                                              ; preds = %212, %208
  store i32 -1, ptr %5, align 4
  store i32 1, ptr %20, align 4
  br label %234

216:                                              ; preds = %205
  %217 = load ptr, ptr %12, align 8, !tbaa !10
  call void @freeaddrinfo(ptr noundef %217) #8
  %218 = load i32, ptr %9, align 4, !tbaa !8
  %219 = icmp ne i32 %218, 0
  br i1 %219, label %220, label %232

220:                                              ; preds = %216
  %221 = load i32, ptr %10, align 4, !tbaa !8
  %222 = icmp sge i32 %221, 0
  br i1 %222, label %223, label %232

223:                                              ; preds = %220
  %224 = load i32, ptr %10, align 4, !tbaa !8
  %225 = load i32, ptr %14, align 4, !tbaa !8
  %226 = call i32 (i32, i32, ...) @fcntl(i32 noundef %224, i32 noundef 4, i32 noundef %225)
  %227 = icmp slt i32 %226, 0
  br i1 %227, label %228, label %231

228:                                              ; preds = %223
  %229 = load i32, ptr %10, align 4, !tbaa !8
  %230 = call i32 @close(i32 noundef %229)
  store i32 -1, ptr %5, align 4
  store i32 1, ptr %20, align 4
  br label %234

231:                                              ; preds = %223
  br label %232

232:                                              ; preds = %231, %220, %216
  %233 = load i32, ptr %10, align 4, !tbaa !8
  store i32 %233, ptr %5, align 4
  store i32 1, ptr %20, align 4
  br label %234

234:                                              ; preds = %232, %228, %215, %32
  call void @llvm.lifetime.end.p0(i64 16, ptr %19) #8
  call void @llvm.lifetime.end.p0(i64 128, ptr %18) #8
  call void @llvm.lifetime.end.p0(i64 128, ptr %17) #8
  call void @llvm.lifetime.end.p0(i64 4, ptr %16) #8
  call void @llvm.lifetime.end.p0(i64 4, ptr %15) #8
  call void @llvm.lifetime.end.p0(i64 4, ptr %14) #8
  call void @llvm.lifetime.end.p0(i64 8, ptr %13) #8
  call void @llvm.lifetime.end.p0(i64 8, ptr %12) #8
  call void @llvm.lifetime.end.p0(i64 48, ptr %11) #8
  call void @llvm.lifetime.end.p0(i64 4, ptr %10) #8
  %235 = load i32, ptr %5, align 4
  ret i32 %235
}