; Function Attrs: nounwind uwtable
define range(i32 -1, -2147483648) i32 @connect_host(ptr noundef %0, ptr noundef %1, i32 noundef %2, i32 noundef %3) local_unnamed_addr #0 {
  %5 = alloca %struct.addrinfo, align 8
  %6 = alloca ptr, align 8
  %7 = alloca i32, align 4
  %8 = alloca i32, align 4
  %9 = alloca %struct.fd_set, align 8
  %10 = alloca %struct.fd_set, align 8
  %11 = alloca %struct.timeval, align 8
  call void @llvm.lifetime.start.p0(i64 48, ptr nonnull %5) #10
  call void @llvm.lifetime.start.p0(i64 8, ptr nonnull %6) #10
  store ptr null, ptr %6, align 8, !tbaa !3
  call void @llvm.lifetime.start.p0(i64 4, ptr nonnull %7) #10
  call void @llvm.lifetime.start.p0(i64 4, ptr nonnull %8) #10
  call void @llvm.lifetime.start.p0(i64 128, ptr nonnull %9) #10
  call void @llvm.lifetime.start.p0(i64 128, ptr nonnull %10) #10
  call void @llvm.lifetime.start.p0(i64 16, ptr nonnull %11) #10
  %12 = getelementptr inbounds nuw i8, ptr %5, i64 8
  call void @llvm.memset.p0.i64(ptr noundef nonnull align 8 dereferenceable(48) %5, i8 0, i64 48, i1 false)
  store i32 1, ptr %12, align 8, !tbaa !8
  %13 = call i32 @getaddrinfo(ptr noundef %0, ptr noundef %1, ptr noundef nonnull %5, ptr noundef nonnull %6) #10
  %.not = icmp eq i32 %13, 0
  br i1 %.not, label %.preheader75, label %93

.preheader75:                                     ; preds = %4
  %.05479 = load ptr, ptr %6, align 8, !tbaa !3
  %.not6080 = icmp eq ptr %.05479, null
  br i1 %.not6080, label %.thread.thread, label %.lr.ph

.thread.thread:                                   ; preds = %.preheader75
  %14 = load ptr, ptr %6, align 8, !tbaa !3
  call void @freeaddrinfo(ptr noundef %14) #10
  br label %93

.lr.ph:                                           ; preds = %.preheader75
  %.not61 = icmp eq i32 %3, 0
  %15 = zext i32 %2 to i64
  %16 = getelementptr inbounds nuw i8, ptr %11, i64 8
  br i1 %.not61, label %.lr.ph.split.us, label %.lr.ph.split

.lr.ph.split.us:                                  ; preds = %.lr.ph, %33
  %.05482.us = phi ptr [ %.054.us, %33 ], [ %.05479, %.lr.ph ]
  %17 = getelementptr inbounds nuw i8, ptr %.05482.us, i64 4
  %18 = load i32, ptr %17, align 4, !tbaa !13
  %19 = getelementptr inbounds nuw i8, ptr %.05482.us, i64 8
  %20 = load i32, ptr %19, align 8, !tbaa !8
  %21 = getelementptr inbounds nuw i8, ptr %.05482.us, i64 12
  %22 = load i32, ptr %21, align 4, !tbaa !14
  %23 = call i32 @socket(i32 noundef %18, i32 noundef %20, i32 noundef %22) #10
  %24 = icmp slt i32 %23, 0
  br i1 %24, label %33, label %25

25:                                               ; preds = %.lr.ph.split.us
  %26 = getelementptr inbounds nuw i8, ptr %.05482.us, i64 24
  %27 = load ptr, ptr %26, align 8, !tbaa !15
  %28 = getelementptr inbounds nuw i8, ptr %.05482.us, i64 16
  %29 = load i32, ptr %28, align 8, !tbaa !16
  %30 = call i32 @connect(i32 noundef %23, ptr %27, i32 noundef %29) #10
  store i32 %30, ptr %7, align 4, !tbaa !17
  %.not62.us = icmp eq i32 %30, 0
  br i1 %.not62.us, label %.thread69, label %31

31:                                               ; preds = %25
  %32 = call i32 @close(i32 noundef %23) #10
  br label %33

33:                                               ; preds = %31, %.lr.ph.split.us
  %34 = getelementptr inbounds nuw i8, ptr %.05482.us, i64 40
  %.054.us = load ptr, ptr %34, align 8, !tbaa !3
  %.not60.us = icmp eq ptr %.054.us, null
  br i1 %.not60.us, label %.thread, label %.lr.ph.split.us

.lr.ph.split:                                     ; preds = %.lr.ph, %81
  %.05482 = phi ptr [ %.054, %81 ], [ %.05479, %.lr.ph ]
  %35 = getelementptr inbounds nuw i8, ptr %.05482, i64 4
  %36 = load i32, ptr %35, align 4, !tbaa !13
  %37 = getelementptr inbounds nuw i8, ptr %.05482, i64 8
  %38 = load i32, ptr %37, align 8, !tbaa !8
  %39 = getelementptr inbounds nuw i8, ptr %.05482, i64 12
  %40 = load i32, ptr %39, align 4, !tbaa !14
  %41 = call i32 @socket(i32 noundef %36, i32 noundef %38, i32 noundef %40) #10
  %42 = icmp slt i32 %41, 0
  br i1 %42, label %81, label %43

43:                                               ; preds = %.lr.ph.split
  %44 = call i32 (i32, i32, ...) @fcntl(i32 noundef %41, i32 noundef 3, i32 noundef 0) #10
  %45 = or i32 %44, 2048
  %46 = call i32 (i32, i32, ...) @fcntl(i32 noundef %41, i32 noundef 4, i32 noundef %45) #10
  %47 = icmp slt i32 %46, 0
  br i1 %47, label %.sink.split, label %48

48:                                               ; preds = %43
  %49 = getelementptr inbounds nuw i8, ptr %.05482, i64 24
  %50 = load ptr, ptr %49, align 8, !tbaa !15
  %51 = getelementptr inbounds nuw i8, ptr %.05482, i64 16
  %52 = load i32, ptr %51, align 8, !tbaa !16
  %53 = call i32 @connect(i32 noundef %41, ptr %50, i32 noundef %52) #10
  store i32 %53, ptr %7, align 4, !tbaa !17
  %.not62 = icmp eq i32 %53, 0
  br i1 %.not62, label %.thread69, label %54

54:                                               ; preds = %48
  %55 = tail call ptr @__errno_location() #11
  %56 = load i32, ptr %55, align 4, !tbaa !17
  %.not63 = icmp eq i32 %56, 115
  br i1 %.not63, label %.preheader.preheader, label %.sink.split

.preheader.preheader:                             ; preds = %54
  store i32 0, ptr %55, align 4, !tbaa !17
  call void @llvm.memset.p0.i64(ptr noundef nonnull align 8 dereferenceable(128) %10, i8 0, i64 128, i1 false), !tbaa !18
  call void @llvm.memset.p0.i64(ptr noundef nonnull align 8 dereferenceable(128) %9, i8 0, i64 128, i1 false), !tbaa !18
  %57 = and i32 %41, 63
  %58 = zext nneg i32 %57 to i64
  %59 = shl nuw i64 1, %58
  %60 = lshr i32 %41, 6
  %61 = zext nneg i32 %60 to i64
  %62 = getelementptr inbounds nuw [16 x i64], ptr %9, i64 0, i64 %61
  %63 = load i64, ptr %62, align 8, !tbaa !18
  %64 = or i64 %63, %59
  store i64 %64, ptr %62, align 8, !tbaa !18
  %65 = getelementptr inbounds nuw [16 x i64], ptr %10, i64 0, i64 %61
  %66 = load i64, ptr %65, align 8, !tbaa !18
  %67 = or i64 %66, %59
  store i64 %67, ptr %65, align 8, !tbaa !18
  store i64 %15, ptr %11, align 8, !tbaa !20
  store i64 0, ptr %16, align 8, !tbaa !22
  %68 = add nuw nsw i32 %41, 1
  %69 = call i32 @select(i32 noundef %68, ptr noundef nonnull %9, ptr noundef nonnull %10, ptr noundef null, ptr noundef nonnull %11) #10
  %70 = icmp slt i32 %69, 1
  br i1 %70, label %.sink.split, label %71

71:                                               ; preds = %.preheader.preheader
  %72 = load i64, ptr %62, align 8, !tbaa !18
  %73 = and i64 %72, %59
  %.not64 = icmp eq i64 %73, 0
  br i1 %.not64, label %74, label %77

74:                                               ; preds = %71
  %75 = load i64, ptr %65, align 8, !tbaa !18
  %76 = and i64 %75, %59
  %.not65 = icmp eq i64 %76, 0
  br i1 %.not65, label %.sink.split, label %77

77:                                               ; preds = %74, %71
  store i32 4, ptr %8, align 4, !tbaa !17
  %78 = call i32 @getsockopt(i32 noundef %41, i32 noundef 1, i32 noundef 4, ptr noundef nonnull %7, ptr noundef nonnull %8) #10
  %79 = icmp slt i32 %78, 0
  br i1 %79, label %.sink.split, label %.thread69

.sink.split:                                      ; preds = %74, %77, %.preheader.preheader, %54, %43
  %80 = call i32 @close(i32 noundef %41) #10
  br label %81

81:                                               ; preds = %.sink.split, %.lr.ph.split
  %82 = getelementptr inbounds nuw i8, ptr %.05482, i64 40
  %.054 = load ptr, ptr %82, align 8, !tbaa !3
  %.not60 = icmp eq ptr %.054, null
  br i1 %.not60, label %.thread, label %.lr.ph.split

.thread:                                          ; preds = %81, %33
  %.052.lcssa = phi i32 [ %23, %33 ], [ %41, %81 ]
  %83 = load ptr, ptr %6, align 8, !tbaa !3
  call void @freeaddrinfo(ptr noundef %83) #10
  %84 = icmp sgt i32 %.052.lcssa, -1
  br i1 %84, label %85, label %93

85:                                               ; preds = %.thread
  %86 = call i32 @close(i32 noundef %.052.lcssa) #10
  br label %93

.thread69:                                        ; preds = %48, %77, %25
  %.us-phi = phi i32 [ 0, %25 ], [ %44, %77 ], [ %44, %48 ]
  %.us-phi83 = phi i32 [ %23, %25 ], [ %41, %77 ], [ %41, %48 ]
  %87 = load ptr, ptr %6, align 8, !tbaa !3
  call void @freeaddrinfo(ptr noundef %87) #10
  br i1 %.not61, label %93, label %88

88:                                               ; preds = %.thread69
  %89 = call i32 (i32, i32, ...) @fcntl(i32 noundef %.us-phi83, i32 noundef 4, i32 noundef %.us-phi) #10
  %90 = icmp slt i32 %89, 0
  br i1 %90, label %91, label %93

91:                                               ; preds = %88
  %92 = call i32 @close(i32 noundef %.us-phi83) #10
  br label %93

93:                                               ; preds = %.thread.thread, %.thread69, %88, %.thread, %85, %4, %91
  %.0 = phi i32 [ -1, %91 ], [ -1, %4 ], [ -1, %85 ], [ -1, %.thread ], [ %.us-phi83, %88 ], [ %.us-phi83, %.thread69 ], [ -1, %.thread.thread ]
  call void @llvm.lifetime.end.p0(i64 16, ptr nonnull %11) #10
  call void @llvm.lifetime.end.p0(i64 128, ptr nonnull %10) #10
  call void @llvm.lifetime.end.p0(i64 128, ptr nonnull %9) #10
  call void @llvm.lifetime.end.p0(i64 4, ptr nonnull %8) #10
  call void @llvm.lifetime.end.p0(i64 4, ptr nonnull %7) #10
  call void @llvm.lifetime.end.p0(i64 8, ptr nonnull %6) #10
  call void @llvm.lifetime.end.p0(i64 48, ptr nonnull %5) #10
  ret i32 %.0
}